ccopy_reg
_reconstructor
p0
(cnltk.classify.naivebayes
NaiveBayesClassifier
p1
c__builtin__
object
p2
Ntp3
Rp4
(dp5
S'_labels'
p6
(lp7
S'1'
p8
aS'-1'
p9
aS'0'
p10
asS'_feature_probdist'
p11
(dp12
(g8
S'f50'
p13
tp14
g0
(cnltk.probability
ELEProbDist
p15
g2
Ntp16
Rp17
(dp18
S'_gamma'
p19
F0.5
sS'_N'
p20
I188
sS'_freqdist'
p21
g0
(cnltk.probability
FreqDist
p22
c__builtin__
dict
p23
(dp24
I0
I187
sI1
I1
stp25
Rp26
(dp27
g20
I188
sS'_max_cache'
p28
NsS'_item_cache'
p29
NsS'_Nr_cache'
p30
NsbsS'_bins'
p31
I3
sS'_divisor'
p32
F189.5
sbs(g9
S'f13'
p33
tp34
g0
(g15
g2
Ntp35
Rp36
(dp37
g19
F0.5
sg20
I160
sg21
g0
(g22
g23
(dp38
I0
I158
sI1
I2
stp39
Rp40
(dp41
g20
I160
sg28
Nsg29
Nsg30
Nsbsg31
I3
sg32
F161.5
sbs(g8
S'f45'
p42
tp43
g0
(g15
g2
Ntp44
Rp45
(dp46
g19
F0.5
sg20
I188
sg21
g0
(g22
g23
(dp47
I0
I186
sI1
I2
stp48
Rp49
(dp50
g20
I188
sg28
Nsg29
Nsg30
Nsbsg31
I3
sg32
F189.5
sbs(g10
S'f0'
p51
tp52
g0
(g15
g2
Ntp53
Rp54
(dp55
g19
F0.5
sg20
I152
sg21
g0
(g22
g23
(dp56
I0
I152
stp57
Rp58
(dp59
g20
I152
sg28
Nsg29
Nsg30
Nsbsg31
I3
sg32
F153.5
sbs(g8
S'f1'
p60
tp61
g0
(g15
g2
Ntp62
Rp63
(dp64
g19
F0.5
sg20
I188
sg21
g0
(g22
g23
(dp65
I0
I122
sI1
I66
stp66
Rp67
(dp68
g20
I188
sg28
Nsg29
Nsg30
Nsbsg31
I3
sg32
F189.5
sbs(g8
S'f30'
p69
tp70
g0
(g15
g2
Ntp71
Rp72
(dp73
g19
F0.5
sg20
I188
sg21
g0
(g22
g23
(dp74
I0
I185
sI1
I3
stp75
Rp76
(dp77
g20
I188
sg28
Nsg29
Nsg30
Nsbsg31
I3
sg32
F189.5
sbs(g8
S'f35'
p78
tp79
g0
(g15
g2
Ntp80
Rp81
(dp82
g19
F0.5
sg20
I188
sg21
g0
(g22
g23
(dp83
I0
I188
stp84
Rp85
(dp86
g20
I188
sg28
Nsg29
Nsg30
Nsbsg31
I3
sg32
F189.5
sbs(g10
S'f36'
p87
tp88
g0
(g15
g2
Ntp89
Rp90
(dp91
g19
F0.5
sg20
I152
sg21
g0
(g22
g23
(dp92
I0
I152
stp93
Rp94
(dp95
g20
I152
sg28
Nsg29
Nsg30
Nsbsg31
I3
sg32
F153.5
sbs(g8
S'f20'
p96
tp97
g0
(g15
g2
Ntp98
Rp99
(dp100
g19
F0.5
sg20
I188
sg21
g0
(g22
g23
(dp101
I0
I185
sI1
I3
stp102
Rp103
(dp104
g20
I188
sg28
Nsg29
Nsg30
Nsbsg31
I3
sg32
F189.5
sbs(g8
S'f38'
p105
tp106
g0
(g15
g2
Ntp107
Rp108
(dp109
g19
F0.5
sg20
I188
sg21
g0
(g22
g23
(dp110
I0
I188
stp111
Rp112
(dp113
g20
I188
sg28
Nsg29
Nsg30
Nsbsg31
I3
sg32
F189.5
sbs(g9
S'f24'
p114
tp115
g0
(g15
g2
Ntp116
Rp117
(dp118
g19
F0.5
sg20
I160
sg21
g0
(g22
g23
(dp119
I0
I159
sI1
I1
stp120
Rp121
(dp122
g20
I160
sg28
Nsg29
Nsg30
Nsbsg31
I3
sg32
F161.5
sbs(g8
S'f37'
p123
tp124
g0
(g15
g2
Ntp125
Rp126
(dp127
g19
F0.5
sg20
I188
sg21
g0
(g22
g23
(dp128
I0
I188
stp129
Rp130
(dp131
g20
I188
sg28
Nsg29
Nsg30
Nsbsg31
I3
sg32
F189.5
sbs(g10
S'f16'
p132
tp133
g0
(g15
g2
Ntp134
Rp135
(dp136
g19
F0.5
sg20
I152
sg21
g0
(g22
g23
(dp137
I0
I152
stp138
Rp139
(dp140
g20
I152
sg28
Nsg29
Nsg30
Nsbsg31
I3
sg32
F153.5
sbs(g8
S'f36'
p141
tp142
g0
(g15
g2
Ntp143
Rp144
(dp145
g19
F0.5
sg20
I188
sg21
g0
(g22
g23
(dp146
I0
I188
stp147
Rp148
(dp149
g20
I188
sg28
Nsg29
Nsg30
Nsbsg31
I3
sg32
F189.5
sbs(g9
S'f35'
p150
tp151
g0
(g15
g2
Ntp152
Rp153
(dp154
g19
F0.5
sg20
I160
sg21
g0
(g22
g23
(dp155
I0
I160
stp156
Rp157
(dp158
g20
I160
sg28
Nsg29
Nsg30
Nsbsg31
I3
sg32
F161.5
sbs(g10
S'f41'
p159
tp160
g0
(g15
g2
Ntp161
Rp162
(dp163
g19
F0.5
sg20
I152
sg21
g0
(g22
g23
(dp164
I0
I152
stp165
Rp166
(dp167
g20
I152
sg28
Nsg29
Nsg30
Nsbsg31
I3
sg32
F153.5
sbs(g10
S'f51'
p168
tp169
g0
(g15
g2
Ntp170
Rp171
(dp172
g19
F0.5
sg20
I152
sg21
g0
(g22
g23
(dp173
I0
I152
stp174
Rp175
(dp176
g20
I152
sg28
Nsg29
Nsg30
Nsbsg31
I3
sg32
F153.5
sbs(g9
S'f1'
p177
tp178
g0
(g15
g2
Ntp179
Rp180
(dp181
g19
F0.5
sg20
I160
sg21
g0
(g22
g23
(dp182
I0
I160
stp183
Rp184
(dp185
g20
I160
sg28
Nsg29
Nsg30
Nsbsg31
I3
sg32
F161.5
sbs(g9
S'f14'
p186
tp187
g0
(g15
g2
Ntp188
Rp189
(dp190
g19
F0.5
sg20
I160
sg21
g0
(g22
g23
(dp191
I0
I153
sI1
I7
stp192
Rp193
(dp194
g20
I160
sg28
Nsg29
Nsg30
Nsbsg31
I3
sg32
F161.5
sbs(g8
S'f40'
p195
tp196
g0
(g15
g2
Ntp197
Rp198
(dp199
g19
F0.5
sg20
I188
sg21
g0
(g22
g23
(dp200
I0
I188
stp201
Rp202
(dp203
g20
I188
sg28
Nsg29
Nsg30
Nsbsg31
I3
sg32
F189.5
sbs(g10
S'f3'
p204
tp205
g0
(g15
g2
Ntp206
Rp207
(dp208
g19
F0.5
sg20
I152
sg21
g0
(g22
g23
(dp209
I0
I152
stp210
Rp211
(dp212
g20
I152
sg28
Nsg29
Nsg30
Nsbsg31
I3
sg32
F153.5
sbs(g8
S'f32'
p213
tp214
g0
(g15
g2
Ntp215
Rp216
(dp217
g19
F0.5
sg20
I188
sg21
g0
(g22
g23
(dp218
I0
I186
sI1
I2
stp219
Rp220
(dp221
g20
I188
sg28
Nsg29
Nsg30
Nsbsg31
I3
sg32
F189.5
sbs(g8
S'f23'
p222
tp223
g0
(g15
g2
Ntp224
Rp225
(dp226
g19
F0.5
sg20
I188
sg21
g0
(g22
g23
(dp227
I0
I184
sI1
I4
stp228
Rp229
(dp230
g20
I188
sg28
Nsg29
Nsg30
Nsbsg31
I3
sg32
F189.5
sbs(g10
S'f44'
p231
tp232
g0
(g15
g2
Ntp233
Rp234
(dp235
g19
F0.5
sg20
I152
sg21
g0
(g22
g23
(dp236
I0
I152
stp237
Rp238
(dp239
g20
I152
sg28
Nsg29
Nsg30
Nsbsg31
I3
sg32
F153.5
sbs(g9
S'f42'
p240
tp241
g0
(g15
g2
Ntp242
Rp243
(dp244
g19
F0.5
sg20
I160
sg21
g0
(g22
g23
(dp245
I0
I160
stp246
Rp247
(dp248
g20
I160
sg28
Nsg29
Nsg30
Nsbsg31
I2
sg32
F161.0
sbs(g8
S'f14'
p249
tp250
g0
(g15
g2
Ntp251
Rp252
(dp253
g19
F0.5
sg20
I188
sg21
g0
(g22
g23
(dp254
I0
I188
stp255
Rp256
(dp257
g20
I188
sg28
Nsg29
Nsg30
Nsbsg31
I3
sg32
F189.5
sbs(g8
S'f27'
p258
tp259
g0
(g15
g2
Ntp260
Rp261
(dp262
g19
F0.5
sg20
I188
sg21
g0
(g22
g23
(dp263
I0
I188
stp264
Rp265
(dp266
g20
I188
sg28
Nsg29
Nsg30
Nsbsg31
I3
sg32
F189.5
sbs(g10
S'f15'
p267
tp268
g0
(g15
g2
Ntp269
Rp270
(dp271
g19
F0.5
sg20
I152
sg21
g0
(g22
g23
(dp272
I0
I152
stp273
Rp274
(dp275
g20
I152
sg28
Nsg29
Nsg30
Nsbsg31
I3
sg32
F153.5
sbs(g8
S'f39'
p276
tp277
g0
(g15
g2
Ntp278
Rp279
(dp280
g19
F0.5
sg20
I188
sg21
g0
(g22
g23
(dp281
I0
I188
stp282
Rp283
(dp284
g20
I188
sg28
Nsg29
Nsg30
Nsbsg31
I3
sg32
F189.5
sbs(g10
S'f42'
p285
tp286
g0
(g15
g2
Ntp287
Rp288
(dp289
g19
F0.5
sg20
I152
sg21
g0
(g22
g23
(dp290
I0
I152
stp291
Rp292
(dp293
g20
I152
sg28
Nsg29
Nsg30
Nsbsg31
I2
sg32
F153.0
sbs(g9
S'f6'
p294
tp295
g0
(g15
g2
Ntp296
Rp297
(dp298
g19
F0.5
sg20
I160
sg21
g0
(g22
g23
(dp299
I0
I160
stp300
Rp301
(dp302
g20
I160
sg28
Nsg29
Nsg30
Nsbsg31
I3
sg32
F161.5
sbs(g9
S'f19'
p303
tp304
g0
(g15
g2
Ntp305
Rp306
(dp307
g19
F0.5
sg20
I160
sg21
g0
(g22
g23
(dp308
I0
I160
stp309
Rp310
(dp311
g20
I160
sg28
Nsg29
Nsg30
Nsbsg31
I3
sg32
F161.5
sbs(g9
S'f41'
p312
tp313
g0
(g15
g2
Ntp314
Rp315
(dp316
g19
F0.5
sg20
I160
sg21
g0
(g22
g23
(dp317
I0
I160
stp318
Rp319
(dp320
g20
I160
sg28
Nsg29
Nsg30
Nsbsg31
I3
sg32
F161.5
sbs(g8
S'f11'
p321
tp322
g0
(g15
g2
Ntp323
Rp324
(dp325
g19
F0.5
sg20
I188
sg21
g0
(g22
g23
(dp326
I0
I178
sI1
I10
stp327
Rp328
(dp329
g20
I188
sg28
Nsg29
Nsg30
Nsbsg31
I3
sg32
F189.5
sbs(g9
S'f50'
p330
tp331
g0
(g15
g2
Ntp332
Rp333
(dp334
g19
F0.5
sg20
I160
sg21
g0
(g22
g23
(dp335
I0
I160
stp336
Rp337
(dp338
g20
I160
sg28
Nsg29
Nsg30
Nsbsg31
I3
sg32
F161.5
sbs(g9
S'f8'
p339
tp340
g0
(g15
g2
Ntp341
Rp342
(dp343
g19
F0.5
sg20
I160
sg21
g0
(g22
g23
(dp344
I0
I148
sI1
I12
stp345
Rp346
(dp347
g20
I160
sg28
Nsg29
Nsg30
Nsbsg31
I3
sg32
F161.5
sbs(g10
S'f10'
p348
tp349
g0
(g15
g2
Ntp350
Rp351
(dp352
g19
F0.5
sg20
I152
sg21
g0
(g22
g23
(dp353
I0
I152
stp354
Rp355
(dp356
g20
I152
sg28
Nsg29
Nsg30
Nsbsg31
I3
sg32
F153.5
sbs(g10
S'f25'
p357
tp358
g0
(g15
g2
Ntp359
Rp360
(dp361
g19
F0.5
sg20
I152
sg21
g0
(g22
g23
(dp362
I0
I152
stp363
Rp364
(dp365
g20
I152
sg28
Nsg29
Nsg30
Nsbsg31
I3
sg32
F153.5
sbs(g10
S'f4'
p366
tp367
g0
(g15
g2
Ntp368
Rp369
(dp370
g19
F0.5
sg20
I152
sg21
g0
(g22
g23
(dp371
I0
I152
stp372
Rp373
(dp374
g20
I152
sg28
Nsg29
Nsg30
Nsbsg31
I3
sg32
F153.5
sbs(g8
S'f5'
p375
tp376
g0
(g15
g2
Ntp377
Rp378
(dp379
g19
F0.5
sg20
I188
sg21
g0
(g22
g23
(dp380
I0
I160
sI1
I28
stp381
Rp382
(dp383
g20
I188
sg28
Nsg29
Nsg30
Nsbsg31
I3
sg32
F189.5
sbs(g10
S'f9'
p384
tp385
g0
(g15
g2
Ntp386
Rp387
(dp388
g19
F0.5
sg20
I152
sg21
g0
(g22
g23
(dp389
I0
I152
stp390
Rp391
(dp392
g20
I152
sg28
Nsg29
Nsg30
Nsbsg31
I3
sg32
F153.5
sbs(g8
S'f8'
p393
tp394
g0
(g15
g2
Ntp395
Rp396
(dp397
g19
F0.5
sg20
I188
sg21
g0
(g22
g23
(dp398
I0
I188
stp399
Rp400
(dp401
g20
I188
sg28
Nsg29
Nsg30
Nsbsg31
I3
sg32
F189.5
sbs(g8
S'f24'
p402
tp403
g0
(g15
g2
Ntp404
Rp405
(dp406
g19
F0.5
sg20
I188
sg21
g0
(g22
g23
(dp407
I0
I187
sI1
I1
stp408
Rp409
(dp410
g20
I188
sg28
Nsg29
Nsg30
Nsbsg31
I3
sg32
F189.5
sbs(g8
S'f29'
p411
tp412
g0
(g15
g2
Ntp413
Rp414
(dp415
g19
F0.5
sg20
I188
sg21
g0
(g22
g23
(dp416
I0
I188
stp417
Rp418
(dp419
g20
I188
sg28
Nsg29
Nsg30
Nsbsg31
I2
sg32
F189.0
sbs(g9
S'f20'
p420
tp421
g0
(g15
g2
Ntp422
Rp423
(dp424
g19
F0.5
sg20
I160
sg21
g0
(g22
g23
(dp425
I0
I160
stp426
Rp427
(dp428
g20
I160
sg28
Nsg29
Nsg30
Nsbsg31
I3
sg32
F161.5
sbs(g9
S'f44'
p429
tp430
g0
(g15
g2
Ntp431
Rp432
(dp433
g19
F0.5
sg20
I160
sg21
g0
(g22
g23
(dp434
I0
I160
stp435
Rp436
(dp437
g20
I160
sg28
Nsg29
Nsg30
Nsbsg31
I3
sg32
F161.5
sbs(g8
S'f12'
p438
tp439
g0
(g15
g2
Ntp440
Rp441
(dp442
g19
F0.5
sg20
I188
sg21
g0
(g22
g23
(dp443
I0
I183
sI1
I5
stp444
Rp445
(dp446
g20
I188
sg28
Nsg29
Nsg30
Nsbsg31
I3
sg32
F189.5
sbs(g9
S'f31'
p447
tp448
g0
(g15
g2
Ntp449
Rp450
(dp451
g19
F0.5
sg20
I160
sg21
g0
(g22
g23
(dp452
I0
I160
stp453
Rp454
(dp455
g20
I160
sg28
Nsg29
Nsg30
Nsbsg31
I3
sg32
F161.5
sbs(g10
S'f30'
p456
tp457
g0
(g15
g2
Ntp458
Rp459
(dp460
g19
F0.5
sg20
I152
sg21
g0
(g22
g23
(dp461
I0
I152
stp462
Rp463
(dp464
g20
I152
sg28
Nsg29
Nsg30
Nsbsg31
I3
sg32
F153.5
sbs(g8
S'f51'
p465
tp466
g0
(g15
g2
Ntp467
Rp468
(dp469
g19
F0.5
sg20
I188
sg21
g0
(g22
g23
(dp470
I0
I188
stp471
Rp472
(dp473
g20
I188
sg28
Nsg29
Nsg30
Nsbsg31
I3
sg32
F189.5
sbs(g9
S'f10'
p474
tp475
g0
(g15
g2
Ntp476
Rp477
(dp478
g19
F0.5
sg20
I160
sg21
g0
(g22
g23
(dp479
I0
I154
sI1
I6
stp480
Rp481
(dp482
g20
I160
sg28
Nsg29
Nsg30
Nsbsg31
I3
sg32
F161.5
sbs(g10
S'f28'
p483
tp484
g0
(g15
g2
Ntp485
Rp486
(dp487
g19
F0.5
sg20
I152
sg21
g0
(g22
g23
(dp488
I0
I152
stp489
Rp490
(dp491
g20
I152
sg28
Nsg29
Nsg30
Nsbsg31
I3
sg32
F153.5
sbs(g8
S'f44'
p492
tp493
g0
(g15
g2
Ntp494
Rp495
(dp496
g19
F0.5
sg20
I188
sg21
g0
(g22
g23
(dp497
I0
I187
sI1
I1
stp498
Rp499
(dp500
g20
I188
sg28
Nsg29
Nsg30
Nsbsg31
I3
sg32
F189.5
sbs(g10
S'f48'
p501
tp502
g0
(g15
g2
Ntp503
Rp504
(dp505
g19
F0.5
sg20
I152
sg21
g0
(g22
g23
(dp506
I0
I152
stp507
Rp508
(dp509
g20
I152
sg28
Nsg29
Nsg30
Nsbsg31
I2
sg32
F153.0
sbs(g10
S'f7'
p510
tp511
g0
(g15
g2
Ntp512
Rp513
(dp514
g19
F0.5
sg20
I152
sg21
g0
(g22
g23
(dp515
I0
I152
stp516
Rp517
(dp518
g20
I152
sg28
Nsg29
Nsg30
Nsbsg31
I3
sg32
F153.5
sbs(g8
S'f49'
p519
tp520
g0
(g15
g2
Ntp521
Rp522
(dp523
g19
F0.5
sg20
I188
sg21
g0
(g22
g23
(dp524
I0
I186
sI1
I2
stp525
Rp526
(dp527
g20
I188
sg28
Nsg29
Nsg30
Nsbsg31
I3
sg32
F189.5
sbs(g8
S'f2'
p528
tp529
g0
(g15
g2
Ntp530
Rp531
(dp532
g19
F0.5
sg20
I188
sg21
g0
(g22
g23
(dp533
I0
I158
sI1
I30
stp534
Rp535
(dp536
g20
I188
sg28
Nsg29
Nsg30
Nsbsg31
I3
sg32
F189.5
sbs(g10
S'f26'
p537
tp538
g0
(g15
g2
Ntp539
Rp540
(dp541
g19
F0.5
sg20
I152
sg21
g0
(g22
g23
(dp542
I0
I150
sI1
I2
stp543
Rp544
(dp545
g20
I152
sg28
Nsg29
Nsg30
Nsbsg31
I3
sg32
F153.5
sbs(g10
S'f37'
p546
tp547
g0
(g15
g2
Ntp548
Rp549
(dp550
g19
F0.5
sg20
I152
sg21
g0
(g22
g23
(dp551
I0
I152
stp552
Rp553
(dp554
g20
I152
sg28
Nsg29
Nsg30
Nsbsg31
I3
sg32
F153.5
sbs(g10
S'f29'
p555
tp556
g0
(g15
g2
Ntp557
Rp558
(dp559
g19
F0.5
sg20
I152
sg21
g0
(g22
g23
(dp560
I0
I152
stp561
Rp562
(dp563
g20
I152
sg28
Nsg29
Nsg30
Nsbsg31
I2
sg32
F153.0
sbs(g8
S'f18'
p564
tp565
g0
(g15
g2
Ntp566
Rp567
(dp568
g19
F0.5
sg20
I188
sg21
g0
(g22
g23
(dp569
I0
I185
sI1
I3
stp570
Rp571
(dp572
g20
I188
sg28
Nsg29
Nsg30
Nsbsg31
I3
sg32
F189.5
sbs(g9
S'f23'
p573
tp574
g0
(g15
g2
Ntp575
Rp576
(dp577
g19
F0.5
sg20
I160
sg21
g0
(g22
g23
(dp578
I0
I160
stp579
Rp580
(dp581
g20
I160
sg28
Nsg29
Nsg30
Nsbsg31
I3
sg32
F161.5
sbs(g10
S'f19'
p582
tp583
g0
(g15
g2
Ntp584
Rp585
(dp586
g19
F0.5
sg20
I152
sg21
g0
(g22
g23
(dp587
I0
I152
stp588
Rp589
(dp590
g20
I152
sg28
Nsg29
Nsg30
Nsbsg31
I3
sg32
F153.5
sbs(g9
S'f36'
p591
tp592
g0
(g15
g2
Ntp593
Rp594
(dp595
g19
F0.5
sg20
I160
sg21
g0
(g22
g23
(dp596
I0
I159
sI1
I1
stp597
Rp598
(dp599
g20
I160
sg28
Nsg29
Nsg30
Nsbsg31
I3
sg32
F161.5
sbs(g10
S'f46'
p600
tp601
g0
(g15
g2
Ntp602
Rp603
(dp604
g19
F0.5
sg20
I152
sg21
g0
(g22
g23
(dp605
I0
I152
stp606
Rp607
(dp608
g20
I152
sg28
Nsg29
Nsg30
Nsbsg31
I2
sg32
F153.0
sbs(g9
S'f2'
p609
tp610
g0
(g15
g2
Ntp611
Rp612
(dp613
g19
F0.5
sg20
I160
sg21
g0
(g22
g23
(dp614
I0
I159
sI1
I1
stp615
Rp616
(dp617
g20
I160
sg28
Nsg29
Nsg30
Nsbsg31
I3
sg32
F161.5
sbs(g9
S'f15'
p618
tp619
g0
(g15
g2
Ntp620
Rp621
(dp622
g19
F0.5
sg20
I160
sg21
g0
(g22
g23
(dp623
I0
I156
sI1
I4
stp624
Rp625
(dp626
g20
I160
sg28
Nsg29
Nsg30
Nsbsg31
I3
sg32
F161.5
sbs(g10
S'f24'
p627
tp628
g0
(g15
g2
Ntp629
Rp630
(dp631
g19
F0.5
sg20
I152
sg21
g0
(g22
g23
(dp632
I0
I152
stp633
Rp634
(dp635
g20
I152
sg28
Nsg29
Nsg30
Nsbsg31
I3
sg32
F153.5
sbs(g8
S'f43'
p636
tp637
g0
(g15
g2
Ntp638
Rp639
(dp640
g19
F0.5
sg20
I188
sg21
g0
(g22
g23
(dp641
I0
I188
stp642
Rp643
(dp644
g20
I188
sg28
Nsg29
Nsg30
Nsbsg31
I2
sg32
F189.0
sbs(g10
S'f2'
p645
tp646
g0
(g15
g2
Ntp647
Rp648
(dp649
g19
F0.5
sg20
I152
sg21
g0
(g22
g23
(dp650
I0
I152
stp651
Rp652
(dp653
g20
I152
sg28
Nsg29
Nsg30
Nsbsg31
I3
sg32
F153.5
sbs(g10
S'f23'
p654
tp655
g0
(g15
g2
Ntp656
Rp657
(dp658
g19
F0.5
sg20
I152
sg21
g0
(g22
g23
(dp659
I0
I152
stp660
Rp661
(dp662
g20
I152
sg28
Nsg29
Nsg30
Nsbsg31
I3
sg32
F153.5
sbs(g10
S'f32'
p663
tp664
g0
(g15
g2
Ntp665
Rp666
(dp667
g19
F0.5
sg20
I152
sg21
g0
(g22
g23
(dp668
I0
I151
sI1
I1
stp669
Rp670
(dp671
g20
I152
sg28
Nsg29
Nsg30
Nsbsg31
I3
sg32
F153.5
sbs(g9
S'f29'
p672
tp673
g0
(g15
g2
Ntp674
Rp675
(dp676
g19
F0.5
sg20
I160
sg21
g0
(g22
g23
(dp677
I0
I160
stp678
Rp679
(dp680
g20
I160
sg28
Nsg29
Nsg30
Nsbsg31
I2
sg32
F161.0
sbs(g8
S'f15'
p681
tp682
g0
(g15
g2
Ntp683
Rp684
(dp685
g19
F0.5
sg20
I188
sg21
g0
(g22
g23
(dp686
I0
I188
stp687
Rp688
(dp689
g20
I188
sg28
Nsg29
Nsg30
Nsbsg31
I3
sg32
F189.5
sbs(g9
S'f38'
p690
tp691
g0
(g15
g2
Ntp692
Rp693
(dp694
g19
F0.5
sg20
I160
sg21
g0
(g22
g23
(dp695
I0
I159
sI1
I1
stp696
Rp697
(dp698
g20
I160
sg28
Nsg29
Nsg30
Nsbsg31
I3
sg32
F161.5
sbs(g9
S'f26'
p699
tp700
g0
(g15
g2
Ntp701
Rp702
(dp703
g19
F0.5
sg20
I160
sg21
g0
(g22
g23
(dp704
I0
I160
stp705
Rp706
(dp707
g20
I160
sg28
Nsg29
Nsg30
Nsbsg31
I3
sg32
F161.5
sbs(g10
S'f14'
p708
tp709
g0
(g15
g2
Ntp710
Rp711
(dp712
g19
F0.5
sg20
I152
sg21
g0
(g22
g23
(dp713
I0
I152
stp714
Rp715
(dp716
g20
I152
sg28
Nsg29
Nsg30
Nsbsg31
I3
sg32
F153.5
sbs(g8
S'f21'
p717
tp718
g0
(g15
g2
Ntp719
Rp720
(dp721
g19
F0.5
sg20
I188
sg21
g0
(g22
g23
(dp722
I0
I188
stp723
Rp724
(dp725
g20
I188
sg28
Nsg29
Nsg30
Nsbsg31
I3
sg32
F189.5
sbs(g10
S'f43'
p726
tp727
g0
(g15
g2
Ntp728
Rp729
(dp730
g19
F0.5
sg20
I152
sg21
g0
(g22
g23
(dp731
I0
I152
stp732
Rp733
(dp734
g20
I152
sg28
Nsg29
Nsg30
Nsbsg31
I2
sg32
F153.0
sbs(g9
S'f7'
p735
tp736
g0
(g15
g2
Ntp737
Rp738
(dp739
g19
F0.5
sg20
I160
sg21
g0
(g22
g23
(dp740
I0
I160
stp741
Rp742
(dp743
g20
I160
sg28
Nsg29
Nsg30
Nsbsg31
I3
sg32
F161.5
sbs(g9
S'f16'
p744
tp745
g0
(g15
g2
Ntp746
Rp747
(dp748
g19
F0.5
sg20
I160
sg21
g0
(g22
g23
(dp749
I0
I160
stp750
Rp751
(dp752
g20
I160
sg28
Nsg29
Nsg30
Nsbsg31
I3
sg32
F161.5
sbs(g10
S'f20'
p753
tp754
g0
(g15
g2
Ntp755
Rp756
(dp757
g19
F0.5
sg20
I152
sg21
g0
(g22
g23
(dp758
I0
I152
stp759
Rp760
(dp761
g20
I152
sg28
Nsg29
Nsg30
Nsbsg31
I3
sg32
F153.5
sbs(g9
S'f40'
p762
tp763
g0
(g15
g2
Ntp764
Rp765
(dp766
g19
F0.5
sg20
I160
sg21
g0
(g22
g23
(dp767
I0
I159
sI1
I1
stp768
Rp769
(dp770
g20
I160
sg28
Nsg29
Nsg30
Nsbsg31
I3
sg32
F161.5
sbs(g8
S'f16'
p771
tp772
g0
(g15
g2
Ntp773
Rp774
(dp775
g19
F0.5
sg20
I188
sg21
g0
(g22
g23
(dp776
I0
I183
sI1
I5
stp777
Rp778
(dp779
g20
I188
sg28
Nsg29
Nsg30
Nsbsg31
I3
sg32
F189.5
sbs(g9
S'f51'
p780
tp781
g0
(g15
g2
Ntp782
Rp783
(dp784
g19
F0.5
sg20
I160
sg21
g0
(g22
g23
(dp785
I0
I155
sI1
I5
stp786
Rp787
(dp788
g20
I160
sg28
Nsg29
Nsg30
Nsbsg31
I3
sg32
F161.5
sbs(g9
S'f9'
p789
tp790
g0
(g15
g2
Ntp791
Rp792
(dp793
g19
F0.5
sg20
I160
sg21
g0
(g22
g23
(dp794
I0
I154
sI1
I6
stp795
Rp796
(dp797
g20
I160
sg28
Nsg29
Nsg30
Nsbsg31
I3
sg32
F161.5
sbs(g10
S'f13'
p798
tp799
g0
(g15
g2
Ntp800
Rp801
(dp802
g19
F0.5
sg20
I152
sg21
g0
(g22
g23
(dp803
I0
I152
stp804
Rp805
(dp806
g20
I152
sg28
Nsg29
Nsg30
Nsbsg31
I3
sg32
F153.5
sbs(g9
S'f4'
p807
tp808
g0
(g15
g2
Ntp809
Rp810
(dp811
g19
F0.5
sg20
I160
sg21
g0
(g22
g23
(dp812
I0
I136
sI1
I24
stp813
Rp814
(dp815
g20
I160
sg28
Nsg29
Nsg30
Nsbsg31
I3
sg32
F161.5
sbs(g8
S'f33'
p816
tp817
g0
(g15
g2
Ntp818
Rp819
(dp820
g19
F0.5
sg20
I188
sg21
g0
(g22
g23
(dp821
I0
I188
stp822
Rp823
(dp824
g20
I188
sg28
Nsg29
Nsg30
Nsbsg31
I3
sg32
F189.5
sbs(g8
S'f6'
p825
tp826
g0
(g15
g2
Ntp827
Rp828
(dp829
g19
F0.5
sg20
I188
sg21
g0
(g22
g23
(dp830
I0
I174
sI1
I14
stp831
Rp832
(dp833
g20
I188
sg28
Nsg29
Nsg30
Nsbsg31
I3
sg32
F189.5
sbs(g10
S'f8'
p834
tp835
g0
(g15
g2
Ntp836
Rp837
(dp838
g19
F0.5
sg20
I152
sg21
g0
(g22
g23
(dp839
I0
I150
sI1
I2
stp840
Rp841
(dp842
g20
I152
sg28
Nsg29
Nsg30
Nsbsg31
I3
sg32
F153.5
sbs(g8
S'f9'
p843
tp844
g0
(g15
g2
Ntp845
Rp846
(dp847
g19
F0.5
sg20
I188
sg21
g0
(g22
g23
(dp848
I0
I188
stp849
Rp850
(dp851
g20
I188
sg28
Nsg29
Nsg30
Nsbsg31
I3
sg32
F189.5
sbs(g8
S'f41'
p852
tp853
g0
(g15
g2
Ntp854
Rp855
(dp856
g19
F0.5
sg20
I188
sg21
g0
(g22
g23
(dp857
I0
I187
sI1
I1
stp858
Rp859
(dp860
g20
I188
sg28
Nsg29
Nsg30
Nsbsg31
I3
sg32
F189.5
sbs(g10
S'f38'
p861
tp862
g0
(g15
g2
Ntp863
Rp864
(dp865
g19
F0.5
sg20
I152
sg21
g0
(g22
g23
(dp866
I0
I152
stp867
Rp868
(dp869
g20
I152
sg28
Nsg29
Nsg30
Nsbsg31
I3
sg32
F153.5
sbs(g8
S'f28'
p870
tp871
g0
(g15
g2
Ntp872
Rp873
(dp874
g19
F0.5
sg20
I188
sg21
g0
(g22
g23
(dp875
I0
I182
sI1
I6
stp876
Rp877
(dp878
g20
I188
sg28
Nsg29
Nsg30
Nsbsg31
I3
sg32
F189.5
sbs(g9
S'f47'
p879
tp880
g0
(g15
g2
Ntp881
Rp882
(dp883
g19
F0.5
sg20
I160
sg21
g0
(g22
g23
(dp884
I0
I160
stp885
Rp886
(dp887
g20
I160
sg28
Nsg29
Nsg30
Nsbsg31
I2
sg32
F161.0
sbs(g8
S'f13'
p888
tp889
g0
(g15
g2
Ntp890
Rp891
(dp892
g19
F0.5
sg20
I188
sg21
g0
(g22
g23
(dp893
I0
I178
sI1
I10
stp894
Rp895
(dp896
g20
I188
sg28
Nsg29
Nsg30
Nsbsg31
I3
sg32
F189.5
sbs(g9
S'f32'
p897
tp898
g0
(g15
g2
Ntp899
Rp900
(dp901
g19
F0.5
sg20
I160
sg21
g0
(g22
g23
(dp902
I0
I157
sI1
I3
stp903
Rp904
(dp905
g20
I160
sg28
Nsg29
Nsg30
Nsbsg31
I3
sg32
F161.5
sbs(g9
S'f11'
p906
tp907
g0
(g15
g2
Ntp908
Rp909
(dp910
g19
F0.5
sg20
I160
sg21
g0
(g22
g23
(dp911
I0
I160
stp912
Rp913
(dp914
g20
I160
sg28
Nsg29
Nsg30
Nsbsg31
I3
sg32
F161.5
sbs(g8
S'f47'
p915
tp916
g0
(g15
g2
Ntp917
Rp918
(dp919
g19
F0.5
sg20
I188
sg21
g0
(g22
g23
(dp920
I0
I188
stp921
Rp922
(dp923
g20
I188
sg28
Nsg29
Nsg30
Nsbsg31
I2
sg32
F189.0
sbs(g10
S'f49'
p924
tp925
g0
(g15
g2
Ntp926
Rp927
(dp928
g19
F0.5
sg20
I152
sg21
g0
(g22
g23
(dp929
I0
I152
stp930
Rp931
(dp932
g20
I152
sg28
Nsg29
Nsg30
Nsbsg31
I3
sg32
F153.5
sbs(g10
S'f6'
p933
tp934
g0
(g15
g2
Ntp935
Rp936
(dp937
g19
F0.5
sg20
I152
sg21
g0
(g22
g23
(dp938
I0
I152
stp939
Rp940
(dp941
g20
I152
sg28
Nsg29
Nsg30
Nsbsg31
I3
sg32
F153.5
sbs(g8
S'f48'
p942
tp943
g0
(g15
g2
Ntp944
Rp945
(dp946
g19
F0.5
sg20
I188
sg21
g0
(g22
g23
(dp947
I0
I188
stp948
Rp949
(dp950
g20
I188
sg28
Nsg29
Nsg30
Nsbsg31
I2
sg32
F189.0
sbs(g8
S'f3'
p951
tp952
g0
(g15
g2
Ntp953
Rp954
(dp955
g19
F0.5
sg20
I188
sg21
g0
(g22
g23
(dp956
I0
I188
stp957
Rp958
(dp959
g20
I188
sg28
Nsg29
Nsg30
Nsbsg31
I3
sg32
F189.5
sbs(g10
S'f27'
p960
tp961
g0
(g15
g2
Ntp962
Rp963
(dp964
g19
F0.5
sg20
I152
sg21
g0
(g22
g23
(dp965
I0
I152
stp966
Rp967
(dp968
g20
I152
sg28
Nsg29
Nsg30
Nsbsg31
I3
sg32
F153.5
sbs(g8
S'f26'
p969
tp970
g0
(g15
g2
Ntp971
Rp972
(dp973
g19
F0.5
sg20
I188
sg21
g0
(g22
g23
(dp974
I0
I188
stp975
Rp976
(dp977
g20
I188
sg28
Nsg29
Nsg30
Nsbsg31
I3
sg32
F189.5
sbs(g10
S'f34'
p978
tp979
g0
(g15
g2
Ntp980
Rp981
(dp982
g19
F0.5
sg20
I152
sg21
g0
(g22
g23
(dp983
I0
I152
stp984
Rp985
(dp986
g20
I152
sg28
Nsg29
Nsg30
Nsbsg31
I2
sg32
F153.0
sbs(g9
S'f49'
p987
tp988
g0
(g15
g2
Ntp989
Rp990
(dp991
g19
F0.5
sg20
I160
sg21
g0
(g22
g23
(dp992
I0
I160
stp993
Rp994
(dp995
g20
I160
sg28
Nsg29
Nsg30
Nsbsg31
I3
sg32
F161.5
sbs(g8
S'f19'
p996
tp997
g0
(g15
g2
Ntp998
Rp999
(dp1000
g19
F0.5
sg20
I188
sg21
g0
(g22
g23
(dp1001
I0
I185
sI1
I3
stp1002
Rp1003
(dp1004
g20
I188
sg28
Nsg29
Nsg30
Nsbsg31
I3
sg32
F189.5
sbs(g9
S'f22'
p1005
tp1006
g0
(g15
g2
Ntp1007
Rp1008
(dp1009
g19
F0.5
sg20
I160
sg21
g0
(g22
g23
(dp1010
I0
I159
sI1
I1
stp1011
Rp1012
(dp1013
g20
I160
sg28
Nsg29
Nsg30
Nsbsg31
I3
sg32
F161.5
sbs(g10
S'f18'
p1014
tp1015
g0
(g15
g2
Ntp1016
Rp1017
(dp1018
g19
F0.5
sg20
I152
sg21
g0
(g22
g23
(dp1019
I0
I152
stp1020
Rp1021
(dp1022
g20
I152
sg28
Nsg29
Nsg30
Nsbsg31
I3
sg32
F153.5
sbs(g9
S'f37'
p1023
tp1024
g0
(g15
g2
Ntp1025
Rp1026
(dp1027
g19
F0.5
sg20
I160
sg21
g0
(g22
g23
(dp1028
I0
I159
sI1
I1
stp1029
Rp1030
(dp1031
g20
I160
sg28
Nsg29
Nsg30
Nsbsg31
I3
sg32
F161.5
sbs(g10
S'f47'
p1032
tp1033
g0
(g15
g2
Ntp1034
Rp1035
(dp1036
g19
F0.5
sg20
I152
sg21
g0
(g22
g23
(dp1037
I0
I152
stp1038
Rp1039
(dp1040
g20
I152
sg28
Nsg29
Nsg30
Nsbsg31
I2
sg32
F153.0
sbs(g9
S'f3'
p1041
tp1042
g0
(g15
g2
Ntp1043
Rp1044
(dp1045
g19
F0.5
sg20
I160
sg21
g0
(g22
g23
(dp1046
I0
I127
sI1
I33
stp1047
Rp1048
(dp1049
g20
I160
sg28
Nsg29
Nsg30
Nsbsg31
I3
sg32
F161.5
sbs(g9
S'f12'
p1050
tp1051
g0
(g15
g2
Ntp1052
Rp1053
(dp1054
g19
F0.5
sg20
I160
sg21
g0
(g22
g23
(dp1055
I0
I160
stp1056
Rp1057
(dp1058
g20
I160
sg28
Nsg29
Nsg30
Nsbsg31
I3
sg32
F161.5
sbs(g8
S'f42'
p1059
tp1060
g0
(g15
g2
Ntp1061
Rp1062
(dp1063
g19
F0.5
sg20
I188
sg21
g0
(g22
g23
(dp1064
I0
I188
stp1065
Rp1066
(dp1067
g20
I188
sg28
Nsg29
Nsg30
Nsbsg31
I2
sg32
F189.0
sbs(g10
S'f1'
p1068
tp1069
g0
(g15
g2
Ntp1070
Rp1071
(dp1072
g19
F0.5
sg20
I152
sg21
g0
(g22
g23
(dp1073
I0
I152
stp1074
Rp1075
(dp1076
g20
I152
sg28
Nsg29
Nsg30
Nsbsg31
I3
sg32
F153.5
sbs(g10
S'f22'
p1077
tp1078
g0
(g15
g2
Ntp1079
Rp1080
(dp1081
g19
F0.5
sg20
I152
sg21
g0
(g22
g23
(dp1082
I0
I152
stp1083
Rp1084
(dp1085
g20
I152
sg28
Nsg29
Nsg30
Nsbsg31
I3
sg32
F153.5
sbs(g8
S'f0'
p1086
tp1087
g0
(g15
g2
Ntp1088
Rp1089
(dp1090
g19
F0.5
sg20
I188
sg21
g0
(g22
g23
(dp1091
I0
I188
stp1092
Rp1093
(dp1094
g20
I188
sg28
Nsg29
Nsg30
Nsbsg31
I3
sg32
F189.5
sbs(g8
S'f34'
p1095
tp1096
g0
(g15
g2
Ntp1097
Rp1098
(dp1099
g19
F0.5
sg20
I188
sg21
g0
(g22
g23
(dp1100
I0
I188
stp1101
Rp1102
(dp1103
g20
I188
sg28
Nsg29
Nsg30
Nsbsg31
I2
sg32
F189.0
sbs(g10
S'f31'
p1104
tp1105
g0
(g15
g2
Ntp1106
Rp1107
(dp1108
g19
F0.5
sg20
I152
sg21
g0
(g22
g23
(dp1109
I0
I150
sI1
I2
stp1110
Rp1111
(dp1112
g20
I152
sg28
Nsg29
Nsg30
Nsbsg31
I3
sg32
F153.5
sbs(g9
S'f28'
p1113
tp1114
g0
(g15
g2
Ntp1115
Rp1116
(dp1117
g19
F0.5
sg20
I160
sg21
g0
(g22
g23
(dp1118
I0
I160
stp1119
Rp1120
(dp1121
g20
I160
sg28
Nsg29
Nsg30
Nsbsg31
I3
sg32
F161.5
sbs(g10
S'f39'
p1122
tp1123
g0
(g15
g2
Ntp1124
Rp1125
(dp1126
g19
F0.5
sg20
I152
sg21
g0
(g22
g23
(dp1127
I0
I152
stp1128
Rp1129
(dp1130
g20
I152
sg28
Nsg29
Nsg30
Nsbsg31
I3
sg32
F153.5
sbs(g9
S'f39'
p1131
tp1132
g0
(g15
g2
Ntp1133
Rp1134
(dp1135
g19
F0.5
sg20
I160
sg21
g0
(g22
g23
(dp1136
I0
I158
sI1
I2
stp1137
Rp1138
(dp1139
g20
I160
sg28
Nsg29
Nsg30
Nsbsg31
I3
sg32
F161.5
sbs(g9
S'f25'
p1140
tp1141
g0
(g15
g2
Ntp1142
Rp1143
(dp1144
g19
F0.5
sg20
I160
sg21
g0
(g22
g23
(dp1145
I0
I160
stp1146
Rp1147
(dp1148
g20
I160
sg28
Nsg29
Nsg30
Nsbsg31
I3
sg32
F161.5
sbs(g10
S'f17'
p1149
tp1150
g0
(g15
g2
Ntp1151
Rp1152
(dp1153
g19
F0.5
sg20
I152
sg21
g0
(g22
g23
(dp1154
I0
I152
stp1155
Rp1156
(dp1157
g20
I152
sg28
Nsg29
Nsg30
Nsbsg31
I3
sg32
F153.5
sbs(g9
S'f34'
p1158
tp1159
g0
(g15
g2
Ntp1160
Rp1161
(dp1162
g19
F0.5
sg20
I160
sg21
g0
(g22
g23
(dp1163
I0
I160
stp1164
Rp1165
(dp1166
g20
I160
sg28
Nsg29
Nsg30
Nsbsg31
I2
sg32
F161.0
sbs(g10
S'f40'
p1167
tp1168
g0
(g15
g2
Ntp1169
Rp1170
(dp1171
g19
F0.5
sg20
I152
sg21
g0
(g22
g23
(dp1172
I0
I152
stp1173
Rp1174
(dp1175
g20
I152
sg28
Nsg29
Nsg30
Nsbsg31
I3
sg32
F153.5
sbs(g9
S'f0'
p1176
tp1177
g0
(g15
g2
Ntp1178
Rp1179
(dp1180
g19
F0.5
sg20
I160
sg21
g0
(g22
g23
(dp1181
I0
I96
sI1
I64
stp1182
Rp1183
(dp1184
g20
I160
sg28
Nsg29
Nsg30
Nsbsg31
I3
sg32
F161.5
sbs(g9
S'f17'
p1185
tp1186
g0
(g15
g2
Ntp1187
Rp1188
(dp1189
g19
F0.5
sg20
I160
sg21
g0
(g22
g23
(dp1190
I0
I160
stp1191
Rp1192
(dp1193
g20
I160
sg28
Nsg29
Nsg30
Nsbsg31
I3
sg32
F161.5
sbs(g10
S'f33'
p1194
tp1195
g0
(g15
g2
Ntp1196
Rp1197
(dp1198
g19
F0.5
sg20
I152
sg21
g0
(g22
g23
(dp1199
I0
I150
sI1
I2
stp1200
Rp1201
(dp1202
g20
I152
sg28
Nsg29
Nsg30
Nsbsg31
I3
sg32
F153.5
sbs(g8
S'f31'
p1203
tp1204
g0
(g15
g2
Ntp1205
Rp1206
(dp1207
g19
F0.5
sg20
I188
sg21
g0
(g22
g23
(dp1208
I0
I188
stp1209
Rp1210
(dp1211
g20
I188
sg28
Nsg29
Nsg30
Nsbsg31
I3
sg32
F189.5
sbs(g8
S'f25'
p1212
tp1213
g0
(g15
g2
Ntp1214
Rp1215
(dp1216
g19
F0.5
sg20
I188
sg21
g0
(g22
g23
(dp1217
I0
I183
sI1
I5
stp1218
Rp1219
(dp1220
g20
I188
sg28
Nsg29
Nsg30
Nsbsg31
I3
sg32
F189.5
sbs(g9
S'f43'
p1221
tp1222
g0
(g15
g2
Ntp1223
Rp1224
(dp1225
g19
F0.5
sg20
I160
sg21
g0
(g22
g23
(dp1226
I0
I160
stp1227
Rp1228
(dp1229
g20
I160
sg28
Nsg29
Nsg30
Nsbsg31
I2
sg32
F161.0
sbs(g8
S'f17'
p1230
tp1231
g0
(g15
g2
Ntp1232
Rp1233
(dp1234
g19
F0.5
sg20
I188
sg21
g0
(g22
g23
(dp1235
I0
I177
sI1
I11
stp1236
Rp1237
(dp1238
g20
I188
sg28
Nsg29
Nsg30
Nsbsg31
I3
sg32
F189.5
sbs(g10
S'f12'
p1239
tp1240
g0
(g15
g2
Ntp1241
Rp1242
(dp1243
g19
F0.5
sg20
I152
sg21
g0
(g22
g23
(dp1244
I0
I152
stp1245
Rp1246
(dp1247
g20
I152
sg28
Nsg29
Nsg30
Nsbsg31
I3
sg32
F153.5
sbs(g10
S'f45'
p1248
tp1249
g0
(g15
g2
Ntp1250
Rp1251
(dp1252
g19
F0.5
sg20
I152
sg21
g0
(g22
g23
(dp1253
I0
I152
stp1254
Rp1255
(dp1256
g20
I152
sg28
Nsg29
Nsg30
Nsbsg31
I3
sg32
F153.5
sbs(g9
S'f5'
p1257
tp1258
g0
(g15
g2
Ntp1259
Rp1260
(dp1261
g19
F0.5
sg20
I160
sg21
g0
(g22
g23
(dp1262
I0
I156
sI1
I4
stp1263
Rp1264
(dp1265
g20
I160
sg28
Nsg29
Nsg30
Nsbsg31
I3
sg32
F161.5
sbs(g9
S'f18'
p1266
tp1267
g0
(g15
g2
Ntp1268
Rp1269
(dp1270
g19
F0.5
sg20
I160
sg21
g0
(g22
g23
(dp1271
I0
I156
sI1
I4
stp1272
Rp1273
(dp1274
g20
I160
sg28
Nsg29
Nsg30
Nsbsg31
I3
sg32
F161.5
sbs(g8
S'f7'
p1275
tp1276
g0
(g15
g2
Ntp1277
Rp1278
(dp1279
g19
F0.5
sg20
I188
sg21
g0
(g22
g23
(dp1280
I0
I180
sI1
I8
stp1281
Rp1282
(dp1283
g20
I188
sg28
Nsg29
Nsg30
Nsbsg31
I3
sg32
F189.5
sbs(g10
S'f21'
p1284
tp1285
g0
(g15
g2
Ntp1286
Rp1287
(dp1288
g19
F0.5
sg20
I152
sg21
g0
(g22
g23
(dp1289
I0
I152
stp1290
Rp1291
(dp1292
g20
I152
sg28
Nsg29
Nsg30
Nsbsg31
I3
sg32
F153.5
sbs(g9
S'f27'
p1293
tp1294
g0
(g15
g2
Ntp1295
Rp1296
(dp1297
g19
F0.5
sg20
I160
sg21
g0
(g22
g23
(dp1298
I0
I157
sI1
I3
stp1299
Rp1300
(dp1301
g20
I160
sg28
Nsg29
Nsg30
Nsbsg31
I3
sg32
F161.5
sbs(g8
S'f22'
p1302
tp1303
g0
(g15
g2
Ntp1304
Rp1305
(dp1306
g19
F0.5
sg20
I188
sg21
g0
(g22
g23
(dp1307
I0
I185
sI1
I3
stp1308
Rp1309
(dp1310
g20
I188
sg28
Nsg29
Nsg30
Nsbsg31
I3
sg32
F189.5
sbs(g9
S'f46'
p1311
tp1312
g0
(g15
g2
Ntp1313
Rp1314
(dp1315
g19
F0.5
sg20
I160
sg21
g0
(g22
g23
(dp1316
I0
I160
stp1317
Rp1318
(dp1319
g20
I160
sg28
Nsg29
Nsg30
Nsbsg31
I2
sg32
F161.0
sbs(g8
S'f10'
p1320
tp1321
g0
(g15
g2
Ntp1322
Rp1323
(dp1324
g19
F0.5
sg20
I188
sg21
g0
(g22
g23
(dp1325
I0
I188
stp1326
Rp1327
(dp1328
g20
I188
sg28
Nsg29
Nsg30
Nsbsg31
I3
sg32
F189.5
sbs(g9
S'f33'
p1329
tp1330
g0
(g15
g2
Ntp1331
Rp1332
(dp1333
g19
F0.5
sg20
I160
sg21
g0
(g22
g23
(dp1334
I0
I160
stp1335
Rp1336
(dp1337
g20
I160
sg28
Nsg29
Nsg30
Nsbsg31
I3
sg32
F161.5
sbs(g10
S'f50'
p1338
tp1339
g0
(g15
g2
Ntp1340
Rp1341
(dp1342
g19
F0.5
sg20
I152
sg21
g0
(g22
g23
(dp1343
I0
I152
stp1344
Rp1345
(dp1346
g20
I152
sg28
Nsg29
Nsg30
Nsbsg31
I3
sg32
F153.5
sbs(g10
S'f11'
p1347
tp1348
g0
(g15
g2
Ntp1349
Rp1350
(dp1351
g19
F0.5
sg20
I152
sg21
g0
(g22
g23
(dp1352
I0
I152
stp1353
Rp1354
(dp1355
g20
I152
sg28
Nsg29
Nsg30
Nsbsg31
I3
sg32
F153.5
sbs(g8
S'f46'
p1356
tp1357
g0
(g15
g2
Ntp1358
Rp1359
(dp1360
g19
F0.5
sg20
I188
sg21
g0
(g22
g23
(dp1361
I0
I188
stp1362
Rp1363
(dp1364
g20
I188
sg28
Nsg29
Nsg30
Nsbsg31
I2
sg32
F189.0
sbs(g10
S'f5'
p1365
tp1366
g0
(g15
g2
Ntp1367
Rp1368
(dp1369
g19
F0.5
sg20
I152
sg21
g0
(g22
g23
(dp1370
I0
I152
stp1371
Rp1372
(dp1373
g20
I152
sg28
Nsg29
Nsg30
Nsbsg31
I3
sg32
F153.5
sbs(g8
S'f4'
p1374
tp1375
g0
(g15
g2
Ntp1376
Rp1377
(dp1378
g19
F0.5
sg20
I188
sg21
g0
(g22
g23
(dp1379
I0
I183
sI1
I5
stp1380
Rp1381
(dp1382
g20
I188
sg28
Nsg29
Nsg30
Nsbsg31
I3
sg32
F189.5
sbs(g10
S'f35'
p1383
tp1384
g0
(g15
g2
Ntp1385
Rp1386
(dp1387
g19
F0.5
sg20
I152
sg21
g0
(g22
g23
(dp1388
I0
I150
sI1
I2
stp1389
Rp1390
(dp1391
g20
I152
sg28
Nsg29
Nsg30
Nsbsg31
I3
sg32
F153.5
sbs(g9
S'f48'
p1392
tp1393
g0
(g15
g2
Ntp1394
Rp1395
(dp1396
g19
F0.5
sg20
I160
sg21
g0
(g22
g23
(dp1397
I0
I160
stp1398
Rp1399
(dp1400
g20
I160
sg28
Nsg29
Nsg30
Nsbsg31
I2
sg32
F161.0
sbs(g9
S'f21'
p1401
tp1402
g0
(g15
g2
Ntp1403
Rp1404
(dp1405
g19
F0.5
sg20
I160
sg21
g0
(g22
g23
(dp1406
I0
I158
sI1
I2
stp1407
Rp1408
(dp1409
g20
I160
sg28
Nsg29
Nsg30
Nsbsg31
I3
sg32
F161.5
sbs(g9
S'f45'
p1410
tp1411
g0
(g15
g2
Ntp1412
Rp1413
(dp1414
g19
F0.5
sg20
I160
sg21
g0
(g22
g23
(dp1415
I0
I160
stp1416
Rp1417
(dp1418
g20
I160
sg28
Nsg29
Nsg30
Nsbsg31
I3
sg32
F161.5
sbs(g9
S'f30'
p1419
tp1420
g0
(g15
g2
Ntp1421
Rp1422
(dp1423
g19
F0.5
sg20
I160
sg21
g0
(g22
g23
(dp1424
I0
I160
stp1425
Rp1426
(dp1427
g20
I160
sg28
Nsg29
Nsg30
Nsbsg31
I3
sg32
F161.5
sbssS'_label_probdist'
p1428
g0
(g15
g2
Ntp1429
Rp1430
(dp1431
g19
F0.5
sg20
I500
sg21
g0
(g22
g23
(dp1432
g8
I188
sg10
I152
sg9
I160
stp1433
Rp1434
(dp1435
g20
I500
sg28
Nsg29
(lp1436
(g8
I188
tp1437
a(g9
I160
tp1438
a(g10
I152
tp1439
asg30
Nsbsg31
I3
sg32
F501.5
sbsb.